; Function Attrs: mustprogress uwtable
define hidden void @_ZN19OpenColorIO_v2_4dev15TransformWriterC2ERNS_12XmlFormatterESt10shared_ptrIKNS_18CTFReaderTransformEEb(ptr noundef nonnull align 8 dereferenceable(33) %this, ptr noundef nonnull align 8 dereferenceable(16) %formatter, ptr nocapture noundef readonly %transform, i1 noundef zeroext %isCLF) unnamed_addr #4 align 2 personality ptr @__gxx_personality_v0 {
entry:
  tail call void @_ZN19OpenColorIO_v2_4dev16XmlElementWriterC2ERNS_12XmlFormatterE(ptr noundef nonnull align 8 dereferenceable(16) %this, ptr noundef nonnull align 8 dereferenceable(16) %formatter)
  store ptr getelementptr inbounds ({ [5 x ptr] }, ptr @_ZTVN19OpenColorIO_v2_4dev15TransformWriterE, i64 0, i32 0, i64 2), ptr %this, align 8
  %m_transform = getelementptr inbounds i8, ptr %this, i64 16
  %0 = load ptr, ptr %transform, align 8
  store ptr %0, ptr %m_transform, align 8
  %_M_refcount.i.i = getelementptr inbounds i8, ptr %this, i64 24
  %_M_refcount3.i.i = getelementptr inbounds i8, ptr %transform, i64 8
  %1 = load ptr, ptr %_M_refcount3.i.i, align 8
  store ptr %1, ptr %_M_refcount.i.i, align 8
  %cmp.not.i.i.i = icmp eq ptr %1, null
  br i1 %cmp.not.i.i.i, label %_ZNSt10shared_ptrIKN19OpenColorIO_v2_4dev18CTFReaderTransformEEC2ERKS3_.exit, label %if.then.i.i.i

if.then.i.i.i:                                    ; preds = %entry
  %_M_use_count.i.i.i.i = getelementptr inbounds i8, ptr %1, i64 8
  %2 = load i8, ptr @__libc_single_threaded, align 1
  %tobool.i.not.i.i.i.i = icmp eq i8 %2, 0
  br i1 %tobool.i.not.i.i.i.i, label %if.else.i.i.i.i.i, label %if.then.i.i.i.i.i

if.then.i.i.i.i.i:                                ; preds = %if.then.i.i.i
  %3 = load i32, ptr %_M_use_count.i.i.i.i, align 4
  %add.i.i.i.i.i = add nsw i32 %3, 1
  store i32 %add.i.i.i.i.i, ptr %_M_use_count.i.i.i.i, align 4
  br label %_ZNSt10shared_ptrIKN19OpenColorIO_v2_4dev18CTFReaderTransformEEC2ERKS3_.exit

if.else.i.i.i.i.i:                                ; preds = %if.then.i.i.i
  %4 = atomicrmw volatile add ptr %_M_use_count.i.i.i.i, i32 1 acq_rel, align 4
  br label %_ZNSt10shared_ptrIKN19OpenColorIO_v2_4dev18CTFReaderTransformEEC2ERKS3_.exit

_ZNSt10shared_ptrIKN19OpenColorIO_v2_4dev18CTFReaderTransformEEC2ERKS3_.exit: ; preds = %entry, %if.then.i.i.i.i.i, %if.else.i.i.i.i.i
  %frombool = zext i1 %isCLF to i8
  %m_isCLF = getelementptr inbounds i8, ptr %this, i64 32
  store i8 %frombool, ptr %m_isCLF, align 8
  ret void
}